target datalayout = "e-m:e-p270:32:32-p271:32:32-p272:64:64-i64:64-i128:128-f80:128-n8:16:32:64-S128"
target triple = "x86_64-pc-linux-gnu"

%struct._xml_frame_t = type { i32, ptr, ptr, ptr, ptr, ptr, ptr, ptr, ptr, ptr, ptr, ptr, ptr, i32, i32, ptr, ptr }
%struct._GPtrArray = type { ptr, i32 }
%struct._tvbparse_elem_t = type { i32, ptr, ptr, i32, i32, ptr, ptr, ptr, ptr, ptr }

@ett_dtd = internal global i32 0, align 4
@hf_doctype = internal global i32 0, align 4
@.str.259 = private unnamed_addr constant [3 x i8] c"%s\00", align 1

; Function Attrs: nounwind null_pointer_is_valid sspstrong uwtable
define internal void @insert_xml_frame(ptr noundef %0, ptr noundef %1) #0 {
  %3 = alloca ptr, align 8
  %4 = alloca ptr, align 8
  store ptr %0, ptr %3, align 8
  store ptr %1, ptr %4, align 8
  %5 = load ptr, ptr %4, align 8
  %6 = getelementptr inbounds nuw %struct._xml_frame_t, ptr %5, i32 0, i32 2
  store ptr null, ptr %6, align 8
  %7 = load ptr, ptr %4, align 8
  %8 = getelementptr inbounds nuw %struct._xml_frame_t, ptr %7, i32 0, i32 3
  store ptr null, ptr %8, align 8
  %9 = load ptr, ptr %3, align 8
  %10 = load ptr, ptr %4, align 8
  %11 = getelementptr inbounds nuw %struct._xml_frame_t, ptr %10, i32 0, i32 1
  store ptr %9, ptr %11, align 8
  %12 = load ptr, ptr %4, align 8
  %13 = getelementptr inbounds nuw %struct._xml_frame_t, ptr %12, i32 0, i32 5
  store ptr null, ptr %13, align 8
  %14 = load ptr, ptr %4, align 8
  %15 = getelementptr inbounds nuw %struct._xml_frame_t, ptr %14, i32 0, i32 4
  store ptr null, ptr %15, align 8
  %16 = load ptr, ptr %3, align 8
  %17 = icmp eq ptr %16, null
  br i1 %17, label %18, label %19

18:                                               ; preds = %2
  br label %43

19:                                               ; preds = %2
  %20 = load ptr, ptr %3, align 8
  %21 = getelementptr inbounds nuw %struct._xml_frame_t, ptr %20, i32 0, i32 2
  %22 = load ptr, ptr %21, align 8
  %23 = icmp eq ptr %22, null
  br i1 %23, label %24, label %28

24:                                               ; preds = %19
  %25 = load ptr, ptr %4, align 8
  %26 = load ptr, ptr %3, align 8
  %27 = getelementptr inbounds nuw %struct._xml_frame_t, ptr %26, i32 0, i32 2
  store ptr %25, ptr %27, align 8
  br label %39

28:                                               ; preds = %19
  %29 = load ptr, ptr %4, align 8
  %30 = load ptr, ptr %3, align 8
  %31 = getelementptr inbounds nuw %struct._xml_frame_t, ptr %30, i32 0, i32 3
  %32 = load ptr, ptr %31, align 8
  %33 = getelementptr inbounds nuw %struct._xml_frame_t, ptr %32, i32 0, i32 5
  store ptr %29, ptr %33, align 8
  %34 = load ptr, ptr %3, align 8
  %35 = getelementptr inbounds nuw %struct._xml_frame_t, ptr %34, i32 0, i32 3
  %36 = load ptr, ptr %35, align 8
  %37 = load ptr, ptr %4, align 8
  %38 = getelementptr inbounds nuw %struct._xml_frame_t, ptr %37, i32 0, i32 4
  store ptr %36, ptr %38, align 8
  br label %39

39:                                               ; preds = %28, %24
  %40 = load ptr, ptr %4, align 8
  %41 = load ptr, ptr %3, align 8
  %42 = getelementptr inbounds nuw %struct._xml_frame_t, ptr %41, i32 0, i32 3
  store ptr %40, ptr %42, align 8
  br label %43

43:                                               ; preds = %39, %18
  ret void
}

; Function Attrs: null_pointer_is_valid sspstrong uwtable
define internal void @before_dtd_doctype(ptr noundef %0, ptr noundef %1, ptr noundef %2) #3 {
  %4 = alloca ptr, align 8
  %5 = alloca ptr, align 8
  %6 = alloca ptr, align 8
  %7 = alloca ptr, align 8
  %8 = alloca ptr, align 8
  %9 = alloca ptr, align 8
  %10 = alloca ptr, align 8
  %11 = alloca ptr, align 8
  store ptr %0, ptr %4, align 8
  store ptr %1, ptr %5, align 8
  store ptr %2, ptr %6, align 8
  call void @llvm.lifetime.start.p0(i64 8, ptr %7) #10
  %12 = load ptr, ptr %4, align 8
  store ptr %12, ptr %7, align 8
  call void @llvm.lifetime.start.p0(i64 8, ptr %8) #10
  %13 = load ptr, ptr %7, align 8
  %14 = getelementptr inbounds nuw %struct._GPtrArray, ptr %13, i32 0, i32 0
  %15 = load ptr, ptr %14, align 8
  %16 = load ptr, ptr %7, align 8
  %17 = getelementptr inbounds nuw %struct._GPtrArray, ptr %16, i32 0, i32 1
  %18 = load i32, ptr %17, align 8
  %19 = sub i32 %18, 1
  %20 = zext i32 %19 to i64
  %21 = getelementptr ptr, ptr %15, i64 %20
  %22 = load ptr, ptr %21, align 8
  store ptr %22, ptr %8, align 8
  call void @llvm.lifetime.start.p0(i64 8, ptr %9) #10
  call void @llvm.lifetime.start.p0(i64 8, ptr %10) #10
  %23 = load ptr, ptr %6, align 8
  %24 = getelementptr inbounds nuw %struct._tvbparse_elem_t, ptr %23, i32 0, i32 6
  %25 = load ptr, ptr %24, align 8
  %26 = getelementptr inbounds nuw %struct._tvbparse_elem_t, ptr %25, i32 0, i32 7
  %27 = load ptr, ptr %26, align 8
  %28 = getelementptr inbounds nuw %struct._tvbparse_elem_t, ptr %27, i32 0, i32 7
  %29 = load ptr, ptr %28, align 8
  %30 = getelementptr inbounds nuw %struct._tvbparse_elem_t, ptr %29, i32 0, i32 7
  %31 = load ptr, ptr %30, align 8
  %32 = getelementptr inbounds nuw %struct._tvbparse_elem_t, ptr %31, i32 0, i32 6
  %33 = load ptr, ptr %32, align 8
  %34 = getelementptr inbounds nuw %struct._tvbparse_elem_t, ptr %33, i32 0, i32 6
  %35 = load ptr, ptr %34, align 8
  store ptr %35, ptr %10, align 8
  call void @llvm.lifetime.start.p0(i64 8, ptr %11) #10
  %36 = load ptr, ptr %8, align 8
  %37 = getelementptr inbounds nuw %struct._xml_frame_t, ptr %36, i32 0, i32 9
  %38 = load ptr, ptr %37, align 8
  %39 = load i32, ptr @hf_doctype, align 4
  %40 = load ptr, ptr %10, align 8
  %41 = getelementptr inbounds nuw %struct._tvbparse_elem_t, ptr %40, i32 0, i32 2
  %42 = load ptr, ptr %41, align 8
  %43 = load ptr, ptr %10, align 8
  %44 = getelementptr inbounds nuw %struct._tvbparse_elem_t, ptr %43, i32 0, i32 3
  %45 = load i32, ptr %44, align 8
  %46 = load ptr, ptr %10, align 8
  %47 = getelementptr inbounds nuw %struct._tvbparse_elem_t, ptr %46, i32 0, i32 4
  %48 = load i32, ptr %47, align 4
  %49 = call ptr @proto_tree_add_item(ptr noundef %38, i32 noundef %39, ptr noundef %42, i32 noundef %45, i32 noundef %48, i32 noundef 0)
  store ptr %49, ptr %11, align 8
  %50 = load ptr, ptr %11, align 8
  %51 = call ptr @wmem_packet_scope()
  %52 = load ptr, ptr %6, align 8
  %53 = getelementptr inbounds nuw %struct._tvbparse_elem_t, ptr %52, i32 0, i32 2
  %54 = load ptr, ptr %53, align 8
  %55 = load ptr, ptr %6, align 8
  %56 = getelementptr inbounds nuw %struct._tvbparse_elem_t, ptr %55, i32 0, i32 3
  %57 = load i32, ptr %56, align 8
  %58 = load ptr, ptr %6, align 8
  %59 = getelementptr inbounds nuw %struct._tvbparse_elem_t, ptr %58, i32 0, i32 4
  %60 = load i32, ptr %59, align 4
  %61 = call ptr @tvb_format_text(ptr noundef %51, ptr noundef %54, i32 noundef %57, i32 noundef %60)
  call void (ptr, ptr, ...) @proto_item_set_text(ptr noundef %50, ptr noundef @.str.259, ptr noundef %61)
  %62 = call ptr @wmem_packet_scope()
  %63 = call noalias ptr @wmem_alloc(ptr noundef %62, i64 noundef 128) #12
  store ptr %63, ptr %9, align 8
  %64 = load ptr, ptr %9, align 8
  %65 = getelementptr inbounds nuw %struct._xml_frame_t, ptr %64, i32 0, i32 0
  store i32 3, ptr %65, align 8
  %66 = call ptr @wmem_packet_scope()
  %67 = load ptr, ptr %10, align 8
  %68 = getelementptr inbounds nuw %struct._tvbparse_elem_t, ptr %67, i32 0, i32 2
  %69 = load ptr, ptr %68, align 8
  %70 = load ptr, ptr %10, align 8
  %71 = getelementptr inbounds nuw %struct._tvbparse_elem_t, ptr %70, i32 0, i32 3
  %72 = load i32, ptr %71, align 8
  %73 = load ptr, ptr %10, align 8
  %74 = getelementptr inbounds nuw %struct._tvbparse_elem_t, ptr %73, i32 0, i32 4
  %75 = load i32, ptr %74, align 4
  %76 = call ptr @tvb_get_string_enc(ptr noundef %66, ptr noundef %69, i32 noundef %72, i32 noundef %75, i32 noundef 0)
  %77 = load ptr, ptr %9, align 8
  %78 = getelementptr inbounds nuw %struct._xml_frame_t, ptr %77, i32 0, i32 6
  store ptr %76, ptr %78, align 8
  %79 = load ptr, ptr %9, align 8
  %80 = getelementptr inbounds nuw %struct._xml_frame_t, ptr %79, i32 0, i32 6
  %81 = load ptr, ptr %80, align 8
  %82 = load ptr, ptr %9, align 8
  %83 = getelementptr inbounds nuw %struct._xml_frame_t, ptr %82, i32 0, i32 7
  store ptr %81, ptr %83, align 8
  %84 = load ptr, ptr %9, align 8
  %85 = getelementptr inbounds nuw %struct._xml_frame_t, ptr %84, i32 0, i32 8
  store ptr null, ptr %85, align 8
  %86 = load ptr, ptr %8, align 8
  %87 = load ptr, ptr %9, align 8
  call void @insert_xml_frame(ptr noundef %86, ptr noundef %87)
  %88 = load ptr, ptr %11, align 8
  %89 = load ptr, ptr %9, align 8
  %90 = getelementptr inbounds nuw %struct._xml_frame_t, ptr %89, i32 0, i32 10
  store ptr %88, ptr %90, align 8
  %91 = load ptr, ptr %11, align 8
  %92 = load ptr, ptr %9, align 8
  %93 = getelementptr inbounds nuw %struct._xml_frame_t, ptr %92, i32 0, i32 11
  store ptr %91, ptr %93, align 8
  %94 = load ptr, ptr %11, align 8
  %95 = load i32, ptr @ett_dtd, align 4
  %96 = call ptr @proto_item_add_subtree(ptr noundef %94, i32 noundef %95)
  %97 = load ptr, ptr %9, align 8
  %98 = getelementptr inbounds nuw %struct._xml_frame_t, ptr %97, i32 0, i32 9
  store ptr %96, ptr %98, align 8
  %99 = load ptr, ptr %6, align 8
  %100 = getelementptr inbounds nuw %struct._tvbparse_elem_t, ptr %99, i32 0, i32 3
  %101 = load i32, ptr %100, align 8
  %102 = load ptr, ptr %9, align 8
  %103 = getelementptr inbounds nuw %struct._xml_frame_t, ptr %102, i32 0, i32 13
  store i32 %101, ptr %103, align 8
  %104 = load ptr, ptr %6, align 8
  %105 = getelementptr inbounds nuw %struct._tvbparse_elem_t, ptr %104, i32 0, i32 4
  %106 = load i32, ptr %105, align 4
  %107 = load ptr, ptr %9, align 8
  %108 = getelementptr inbounds nuw %struct._xml_frame_t, ptr %107, i32 0, i32 14
  store i32 %106, ptr %108, align 4
  %109 = load ptr, ptr %9, align 8
  %110 = getelementptr inbounds nuw %struct._xml_frame_t, ptr %109, i32 0, i32 12
  store ptr null, ptr %110, align 8
  %111 = load ptr, ptr %8, align 8
  %112 = getelementptr inbounds nuw %struct._xml_frame_t, ptr %111, i32 0, i32 15
  %113 = load ptr, ptr %112, align 8
  %114 = load ptr, ptr %9, align 8
  %115 = getelementptr inbounds nuw %struct._xml_frame_t, ptr %114, i32 0, i32 15
  store ptr %113, ptr %115, align 8
  %116 = load ptr, ptr %7, align 8
  %117 = load ptr, ptr %9, align 8
  call void @g_ptr_array_add(ptr noundef %116, ptr noundef %117)
  call void @llvm.lifetime.end.p0(i64 8, ptr %11) #10
  call void @llvm.lifetime.end.p0(i64 8, ptr %10) #10
  call void @llvm.lifetime.end.p0(i64 8, ptr %9) #10
  call void @llvm.lifetime.end.p0(i64 8, ptr %8) #10
  call void @llvm.lifetime.end.p0(i64 8, ptr %7) #10
  ret void
}