; Function Attrs: null_pointer_is_valid sspstrong uwtable
define internal void @before_dtd_doctype(ptr noundef %0, ptr readnone captures(none) %1, ptr noundef readonly captures(none) %2) #4 {
  %4 = load ptr, ptr %0, align 8
  %5 = getelementptr inbounds nuw i8, ptr %0, i64 8
  %6 = load i32, ptr %5, align 8
  %7 = add i32 %6, -1
  %8 = zext i32 %7 to i64
  %9 = getelementptr ptr, ptr %4, i64 %8
  %10 = load ptr, ptr %9, align 8
  %11 = getelementptr inbounds nuw i8, ptr %2, i64 40
  %12 = load ptr, ptr %11, align 8
  %13 = getelementptr inbounds nuw i8, ptr %12, i64 48
  %14 = load ptr, ptr %13, align 8
  %15 = getelementptr inbounds nuw i8, ptr %14, i64 48
  %16 = load ptr, ptr %15, align 8
  %17 = getelementptr inbounds nuw i8, ptr %16, i64 48
  %18 = load ptr, ptr %17, align 8
  %19 = getelementptr inbounds nuw i8, ptr %18, i64 40
  %20 = load ptr, ptr %19, align 8
  %21 = getelementptr inbounds nuw i8, ptr %20, i64 40
  %22 = load ptr, ptr %21, align 8
  %23 = getelementptr inbounds nuw i8, ptr %10, i64 72
  %24 = load ptr, ptr %23, align 8
  %25 = load i32, ptr @hf_doctype, align 4
  %26 = getelementptr inbounds nuw i8, ptr %22, i64 16
  %27 = load ptr, ptr %26, align 8
  %28 = getelementptr inbounds nuw i8, ptr %22, i64 24
  %29 = load i32, ptr %28, align 8
  %30 = getelementptr inbounds nuw i8, ptr %22, i64 28
  %31 = load i32, ptr %30, align 4
  %32 = tail call ptr @proto_tree_add_item(ptr noundef %24, i32 noundef %25, ptr noundef %27, i32 noundef %29, i32 noundef %31, i32 noundef 0)
  %33 = tail call ptr @wmem_packet_scope()
  %34 = getelementptr inbounds nuw i8, ptr %2, i64 16
  %35 = load ptr, ptr %34, align 8
  %36 = getelementptr inbounds nuw i8, ptr %2, i64 24
  %37 = load i32, ptr %36, align 8
  %38 = getelementptr inbounds nuw i8, ptr %2, i64 28
  %39 = load i32, ptr %38, align 4
  %40 = tail call ptr @tvb_format_text(ptr noundef %33, ptr noundef %35, i32 noundef %37, i32 noundef %39)
  tail call void (ptr, ptr, ...) @proto_item_set_text(ptr noundef %32, ptr noundef nonnull @.str.259, ptr noundef %40)
  %41 = tail call ptr @wmem_packet_scope()
  %42 = tail call noalias dereferenceable_or_null(128) ptr @wmem_alloc(ptr noundef %41, i64 noundef 128) #13
  store i32 3, ptr %42, align 8
  %43 = tail call ptr @wmem_packet_scope()
  %44 = load ptr, ptr %26, align 8
  %45 = load i32, ptr %28, align 8
  %46 = load i32, ptr %30, align 4
  %47 = tail call ptr @tvb_get_string_enc(ptr noundef %43, ptr noundef %44, i32 noundef %45, i32 noundef %46, i32 noundef 0)
  %48 = getelementptr inbounds nuw i8, ptr %42, i64 48
  store ptr %47, ptr %48, align 8
  %49 = getelementptr inbounds nuw i8, ptr %42, i64 56
  store ptr %47, ptr %49, align 8
  %50 = getelementptr inbounds nuw i8, ptr %42, i64 64
  store ptr null, ptr %50, align 8
  %51 = getelementptr inbounds nuw i8, ptr %42, i64 16
  %52 = getelementptr inbounds nuw i8, ptr %42, i64 8
  tail call void @llvm.memset.p0.i64(ptr noundef nonnull align 8 dereferenceable(16) %51, i8 0, i64 16, i1 false)
  store ptr %10, ptr %52, align 8
  %53 = getelementptr inbounds nuw i8, ptr %42, i64 32
  %54 = icmp eq ptr %10, null
  tail call void @llvm.memset.p0.i64(ptr noundef nonnull align 8 dereferenceable(16) %53, i8 0, i64 16, i1 false)
  br i1 %54, label %insert_xml_frame.exit, label %55

55:                                               ; preds = %3
  %56 = getelementptr inbounds nuw i8, ptr %10, i64 16
  %57 = load ptr, ptr %56, align 8
  %58 = icmp eq ptr %57, null
  br i1 %58, label %59, label %60

59:                                               ; preds = %55
  store ptr %42, ptr %56, align 8
  br label %65

60:                                               ; preds = %55
  %61 = getelementptr inbounds nuw i8, ptr %10, i64 24
  %62 = load ptr, ptr %61, align 8
  %63 = getelementptr inbounds nuw i8, ptr %62, i64 40
  store ptr %42, ptr %63, align 8
  %64 = load ptr, ptr %61, align 8
  store ptr %64, ptr %53, align 8
  br label %65

65:                                               ; preds = %60, %59
  %66 = getelementptr inbounds nuw i8, ptr %10, i64 24
  store ptr %42, ptr %66, align 8
  br label %insert_xml_frame.exit

insert_xml_frame.exit:                            ; preds = %3, %65
  %67 = getelementptr inbounds nuw i8, ptr %42, i64 80
  store ptr %32, ptr %67, align 8
  %68 = getelementptr inbounds nuw i8, ptr %42, i64 88
  store ptr %32, ptr %68, align 8
  %69 = load i32, ptr @ett_dtd, align 4
  %70 = tail call ptr @proto_item_add_subtree(ptr noundef %32, i32 noundef %69)
  %71 = getelementptr inbounds nuw i8, ptr %42, i64 72
  store ptr %70, ptr %71, align 8
  %72 = load i32, ptr %36, align 8
  %73 = getelementptr inbounds nuw i8, ptr %42, i64 104
  store i32 %72, ptr %73, align 8
  %74 = load i32, ptr %38, align 4
  %75 = getelementptr inbounds nuw i8, ptr %42, i64 108
  store i32 %74, ptr %75, align 4
  %76 = getelementptr inbounds nuw i8, ptr %42, i64 96
  store ptr null, ptr %76, align 8
  %77 = getelementptr inbounds nuw i8, ptr %10, i64 112
  %78 = load ptr, ptr %77, align 8
  %79 = getelementptr inbounds nuw i8, ptr %42, i64 112
  store ptr %78, ptr %79, align 8
  tail call void @g_ptr_array_add(ptr noundef %0, ptr noundef %42)
  ret void
}